target datalayout = "e-m:e-p270:32:32-p271:32:32-p272:64:64-i64:64-i128:128-f80:128-n8:16:32:64-S128"
target triple = "x86_64-unknown-linux-gnu"

%"struct.icu_75::CollationTailoring" = type { %"class.icu_75::SharedObject", ptr, ptr, %"class.icu_75::UnicodeString", %"class.icu_75::Locale", [4 x i8], ptr, ptr, ptr, ptr, ptr, ptr, ptr, %"struct.icu_75::UInitOnce" }
%"class.icu_75::SharedObject" = type { %"class.icu_75::UObject", i32, %"struct.std::atomic", ptr }
%"class.icu_75::UObject" = type { ptr }
%"struct.std::atomic" = type { %"struct.std::__atomic_base" }
%"struct.std::__atomic_base" = type { i32 }
%"class.icu_75::UnicodeString" = type { %"class.icu_75::Replaceable", %"union.icu_75::UnicodeString::StackBufferOrFields" }
%"class.icu_75::Replaceable" = type { %"class.icu_75::UObject" }
%"union.icu_75::UnicodeString::StackBufferOrFields" = type { %struct.anon.0, [32 x i8] }
%struct.anon.0 = type { i16, i32, i32, ptr }
%"class.icu_75::Locale" = type <{ %"class.icu_75::UObject", [12 x i8], [6 x i8], [4 x i8], [2 x i8], i32, [4 x i8], ptr, [157 x i8], [3 x i8], ptr, i8, [7 x i8] }>
%"struct.icu_75::UInitOnce" = type { %"struct.std::atomic", i32 }

; Function Attrs: mustprogress nounwind uwtable
define void @_ZN6icu_7518CollationTailoring10setVersionEPKhS2_(ptr noundef nonnull align 8 dereferenceable(400) %this, ptr noundef %baseVersion, ptr noundef %rulesVersion) #1 align 2 {
entry:
  %this.addr = alloca ptr, align 8
  %baseVersion.addr = alloca ptr, align 8
  %rulesVersion.addr = alloca ptr, align 8
  store ptr %this, ptr %this.addr, align 8
  store ptr %baseVersion, ptr %baseVersion.addr, align 8
  store ptr %rulesVersion, ptr %rulesVersion.addr, align 8
  %this1 = load ptr, ptr %this.addr, align 8
  %version = getelementptr inbounds %"struct.icu_75::CollationTailoring", ptr %this1, i32 0, i32 5
  %arrayidx = getelementptr inbounds [4 x i8], ptr %version, i64 0, i64 0
  store i8 9, ptr %arrayidx, align 8
  %0 = load ptr, ptr %baseVersion.addr, align 8
  %arrayidx2 = getelementptr inbounds i8, ptr %0, i64 1
  %1 = load i8, ptr %arrayidx2, align 1
  %version3 = getelementptr inbounds %"struct.icu_75::CollationTailoring", ptr %this1, i32 0, i32 5
  %arrayidx4 = getelementptr inbounds [4 x i8], ptr %version3, i64 0, i64 1
  store i8 %1, ptr %arrayidx4, align 1
  %2 = load ptr, ptr %baseVersion.addr, align 8
  %arrayidx5 = getelementptr inbounds i8, ptr %2, i64 2
  %3 = load i8, ptr %arrayidx5, align 1
  %conv = zext i8 %3 to i32
  %and = and i32 %conv, 192
  %4 = load ptr, ptr %rulesVersion.addr, align 8
  %arrayidx6 = getelementptr inbounds i8, ptr %4, i64 0
  %5 = load i8, ptr %arrayidx6, align 1
  %conv7 = zext i8 %5 to i32
  %6 = load ptr, ptr %rulesVersion.addr, align 8
  %arrayidx8 = getelementptr inbounds i8, ptr %6, i64 0
  %7 = load i8, ptr %arrayidx8, align 1
  %conv9 = zext i8 %7 to i32
  %shr = ashr i32 %conv9, 6
  %add = add nsw i32 %conv7, %shr
  %and10 = and i32 %add, 63
  %add11 = add nsw i32 %and, %and10
  %conv12 = trunc i32 %add11 to i8
  %version13 = getelementptr inbounds %"struct.icu_75::CollationTailoring", ptr %this1, i32 0, i32 5
  %arrayidx14 = getelementptr inbounds [4 x i8], ptr %version13, i64 0, i64 2
  store i8 %conv12, ptr %arrayidx14, align 2
  %8 = load ptr, ptr %rulesVersion.addr, align 8
  %arrayidx15 = getelementptr inbounds i8, ptr %8, i64 1
  %9 = load i8, ptr %arrayidx15, align 1
  %conv16 = zext i8 %9 to i32
  %shl = shl i32 %conv16, 3
  %10 = load ptr, ptr %rulesVersion.addr, align 8
  %arrayidx17 = getelementptr inbounds i8, ptr %10, i64 1
  %11 = load i8, ptr %arrayidx17, align 1
  %conv18 = zext i8 %11 to i32
  %shr19 = ashr i32 %conv18, 5
  %add20 = add nsw i32 %shl, %shr19
  %12 = load ptr, ptr %rulesVersion.addr, align 8
  %arrayidx21 = getelementptr inbounds i8, ptr %12, i64 2
  %13 = load i8, ptr %arrayidx21, align 1
  %conv22 = zext i8 %13 to i32
  %add23 = add nsw i32 %add20, %conv22
  %14 = load ptr, ptr %rulesVersion.addr, align 8
  %arrayidx24 = getelementptr inbounds i8, ptr %14, i64 3
  %15 = load i8, ptr %arrayidx24, align 1
  %conv25 = zext i8 %15 to i32
  %shl26 = shl i32 %conv25, 4
  %add27 = add nsw i32 %add23, %shl26
  %16 = load ptr, ptr %rulesVersion.addr, align 8
  %arrayidx28 = getelementptr inbounds i8, ptr %16, i64 3
  %17 = load i8, ptr %arrayidx28, align 1
  %conv29 = zext i8 %17 to i32
  %shr30 = ashr i32 %conv29, 4
  %add31 = add nsw i32 %add27, %shr30
  %conv32 = trunc i32 %add31 to i8
  %version33 = getelementptr inbounds %"struct.icu_75::CollationTailoring", ptr %this1, i32 0, i32 5
  %arrayidx34 = getelementptr inbounds [4 x i8], ptr %version33, i64 0, i64 3
  store i8 %conv32, ptr %arrayidx34, align 1
  ret void
}