; Function Attrs: mustprogress nofree norecurse nosync nounwind willreturn memory(argmem: readwrite) uwtable
define void @_ZN6icu_7518CollationTailoring10setVersionEPKhS2_(ptr nocapture noundef nonnull writeonly align 8 dereferenceable(400) %this, ptr nocapture noundef readonly %baseVersion, ptr nocapture noundef readonly %rulesVersion) local_unnamed_addr #5 align 2 {
entry:
  %version = getelementptr inbounds i8, ptr %this, i64 328
  store i8 9, ptr %version, align 8
  %arrayidx2 = getelementptr inbounds i8, ptr %baseVersion, i64 1
  %0 = load i8, ptr %arrayidx2, align 1
  %arrayidx4 = getelementptr inbounds i8, ptr %this, i64 329
  store i8 %0, ptr %arrayidx4, align 1
  %arrayidx5 = getelementptr inbounds i8, ptr %baseVersion, i64 2
  %1 = load i8, ptr %arrayidx5, align 1
  %2 = and i8 %1, -64
  %3 = load i8, ptr %rulesVersion, align 1
  %shr = lshr i8 %3, 6
  %add = add i8 %shr, %3
  %and10 = and i8 %add, 63
  %add11 = or disjoint i8 %and10, %2
  %arrayidx14 = getelementptr inbounds i8, ptr %this, i64 330
  store i8 %add11, ptr %arrayidx14, align 2
  %arrayidx15 = getelementptr inbounds i8, ptr %rulesVersion, i64 1
  %4 = load i8, ptr %arrayidx15, align 1
  %add20 = tail call i8 @llvm.fshl.i8(i8 %4, i8 %4, i8 3)
  %arrayidx21 = getelementptr inbounds i8, ptr %rulesVersion, i64 2
  %5 = load i8, ptr %arrayidx21, align 1
  %add23 = add i8 %add20, %5
  %arrayidx24 = getelementptr inbounds i8, ptr %rulesVersion, i64 3
  %6 = load i8, ptr %arrayidx24, align 1
  %shl26 = shl i8 %6, 4
  %add27 = add i8 %add23, %shl26
  %shr30 = lshr i8 %6, 4
  %add31 = add i8 %add27, %shr30
  %arrayidx34 = getelementptr inbounds i8, ptr %this, i64 331
  store i8 %add31, ptr %arrayidx34, align 1
  ret void
}